target datalayout = "e-m:e-p270:32:32-p271:32:32-p272:64:64-i64:64-i128:128-f80:128-n8:16:32:64-S128"
target triple = "x86_64-pc-linux-gnu"

%"class.std::__1::basic_string" = type { %"class.std::__1::__compressed_pair" }
%"class.std::__1::__compressed_pair" = type { %"struct.std::__1::__compressed_pair_elem" }
%"struct.std::__1::__compressed_pair_elem" = type { %"struct.std::__1::basic_string<char>::__rep" }
%"struct.std::__1::basic_string<char>::__rep" = type { %union.anon }
%union.anon = type { %"struct.std::__1::basic_string<char>::__long" }
%"struct.std::__1::basic_string<char>::__long" = type { %struct.anon.0, i64, ptr }
%struct.anon.0 = type { i64 }
%class.anon.436 = type <{ ptr, ptr, %"class.std::__1::basic_string", i32, [4 x i8] }>
%class.anon.459 = type { i8 }
%struct.Payload = type { %class.anon.436 }

; Function Attrs: mustprogress nounwind uwtable
define internal void @"_ZZN7mitsuba3xml6detailL16instantiate_nodeERNS1_15XMLParseContextERKNSt3__112basic_stringIcNS4_11char_traitsIcEENS4_9allocatorIcEEEERNS_17ThreadEnvironmentERNS4_13unordered_mapISA_P4TaskNS4_4hashISA_EENS4_8equal_toISA_EENS8_INS4_4pairISB_SH_EEEEEEbEN3$_0D2Ev"(ptr noundef nonnull align 8 dereferenceable(44) %0) unnamed_addr #0 align 2 {
  %2 = alloca ptr, align 8
  store ptr %0, ptr %2, align 8
  %3 = load ptr, ptr %2, align 8
  %4 = getelementptr inbounds %class.anon.436, ptr %3, i32 0, i32 2
  call void @_ZNSt3__112basic_stringIcNS_11char_traitsIcEENS_9allocatorIcEEED1Ev(ptr noundef nonnull align 8 dereferenceable(24) %4) #23
  ret void
}

; Function Attrs: mustprogress nounwind uwtable
define internal void @"_ZZN5drjit8do_asyncIRZN7mitsuba3xml6detailL16instantiate_nodeERNS3_15XMLParseContextERKNSt3__112basic_stringIcNS6_11char_traitsIcEENS6_9allocatorIcEEEERNS1_17ThreadEnvironmentERNS6_13unordered_mapISC_P4TaskNS6_4hashISC_EENS6_8equal_toISC_EENSA_INS6_4pairISD_SJ_EEEEEEbE3$_0EESJ_OT_PKPKSI_mP4PoolEN7PayloadD2Ev"(ptr noundef nonnull align 8 dereferenceable(48) %0) unnamed_addr #0 align 2 {
  %2 = alloca ptr, align 8
  store ptr %0, ptr %2, align 8
  %3 = load ptr, ptr %2, align 8
  %4 = getelementptr inbounds %struct.Payload, ptr %3, i32 0, i32 0
  call void @"_ZZN7mitsuba3xml6detailL16instantiate_nodeERNS1_15XMLParseContextERKNSt3__112basic_stringIcNS4_11char_traitsIcEENS4_9allocatorIcEEEERNS_17ThreadEnvironmentERNS4_13unordered_mapISA_P4TaskNS4_4hashISA_EENS4_8equal_toISA_EENS8_INS4_4pairISB_SH_EEEEEEbEN3$_0D2Ev"(ptr noundef nonnull align 8 dereferenceable(44) %4) #23
  ret void
}

; Function Attrs: mustprogress nounwind uwtable
define internal void @"_ZZN5drjit8do_asyncIRZN7mitsuba3xml6detailL16instantiate_nodeERNS3_15XMLParseContextERKNSt3__112basic_stringIcNS6_11char_traitsIcEENS6_9allocatorIcEEEERNS1_17ThreadEnvironmentERNS6_13unordered_mapISC_P4TaskNS6_4hashISC_EENS6_8equal_toISC_EENSA_INS6_4pairISD_SJ_EEEEEEbE3$_0EESJ_OT_PKPKSI_mP4PoolENKUlPvE_clES13_"(ptr noundef nonnull align 1 dereferenceable(1) %0, ptr noundef %1) #0 align 2 {
  %3 = alloca ptr, align 8
  %4 = alloca ptr, align 8
  store ptr %0, ptr %3, align 8
  store ptr %1, ptr %4, align 8
  %5 = load ptr, ptr %4, align 8
  %6 = icmp eq ptr %5, null
  br i1 %6, label %8, label %7

7:                                                ; preds = %2
  call void @"_ZZN5drjit8do_asyncIRZN7mitsuba3xml6detailL16instantiate_nodeERNS3_15XMLParseContextERKNSt3__112basic_stringIcNS6_11char_traitsIcEENS6_9allocatorIcEEEERNS1_17ThreadEnvironmentERNS6_13unordered_mapISC_P4TaskNS6_4hashISC_EENS6_8equal_toISC_EENSA_INS6_4pairISD_SJ_EEEEEEbE3$_0EESJ_OT_PKPKSI_mP4PoolEN7PayloadD2Ev"(ptr noundef nonnull align 8 dereferenceable(48) %5) #23
  call void @_ZdlPv(ptr noundef %5) #26
  br label %8

8:                                                ; preds = %7, %2
  ret void
}

; Function Attrs: mustprogress uwtable
define internal void @"_ZZN5drjit8do_asyncIRZN7mitsuba3xml6detailL16instantiate_nodeERNS3_15XMLParseContextERKNSt3__112basic_stringIcNS6_11char_traitsIcEENS6_9allocatorIcEEEERNS1_17ThreadEnvironmentERNS6_13unordered_mapISC_P4TaskNS6_4hashISC_EENS6_8equal_toISC_EENSA_INS6_4pairISD_SJ_EEEEEEbE3$_0EESJ_OT_PKPKSI_mP4PoolENUlPvE_8__invokeES13_"(ptr noundef %0) #1 align 2 {
  %2 = alloca ptr, align 8
  %3 = alloca %class.anon.459, align 1
  store ptr %0, ptr %2, align 8
  %4 = load ptr, ptr %2, align 8
  call void @"_ZZN5drjit8do_asyncIRZN7mitsuba3xml6detailL16instantiate_nodeERNS3_15XMLParseContextERKNSt3__112basic_stringIcNS6_11char_traitsIcEENS6_9allocatorIcEEEERNS1_17ThreadEnvironmentERNS6_13unordered_mapISC_P4TaskNS6_4hashISC_EENS6_8equal_toISC_EENSA_INS6_4pairISD_SJ_EEEEEEbE3$_0EESJ_OT_PKPKSI_mP4PoolENKUlPvE_clES13_"(ptr noundef nonnull align 1 dereferenceable(1) %3, ptr noundef %4)
  ret void
}