; Function Attrs: mustprogress nounwind uwtable
define internal void @"_ZZN5drjit8do_asyncIRZN7mitsuba3xml6detailL16instantiate_nodeERNS3_15XMLParseContextERKNSt3__112basic_stringIcNS6_11char_traitsIcEENS6_9allocatorIcEEEERNS1_17ThreadEnvironmentERNS6_13unordered_mapISC_P4TaskNS6_4hashISC_EENS6_8equal_toISC_EENSA_INS6_4pairISD_SJ_EEEEEEbE3$_0EESJ_OT_PKPKSI_mP4PoolENUlPvE_8__invokeES13_"(ptr noundef %0) #0 align 2 {
  %2 = icmp eq ptr %0, null
  br i1 %2, label %"_ZZN5drjit8do_asyncIRZN7mitsuba3xml6detailL16instantiate_nodeERNS3_15XMLParseContextERKNSt3__112basic_stringIcNS6_11char_traitsIcEENS6_9allocatorIcEEEERNS1_17ThreadEnvironmentERNS6_13unordered_mapISC_P4TaskNS6_4hashISC_EENS6_8equal_toISC_EENSA_INS6_4pairISD_SJ_EEEEEEbE3$_0EESJ_OT_PKPKSI_mP4PoolENKUlPvE_clES13_.exit", label %3

3:                                                ; preds = %1
  %4 = getelementptr inbounds i8, ptr %0, i64 16
  tail call void @_ZNSt3__112basic_stringIcNS_11char_traitsIcEENS_9allocatorIcEEED1Ev(ptr noundef nonnull align 8 dereferenceable(24) %4) #28
  tail call void @_ZdlPv(ptr noundef nonnull %0) #31
  br label %"_ZZN5drjit8do_asyncIRZN7mitsuba3xml6detailL16instantiate_nodeERNS3_15XMLParseContextERKNSt3__112basic_stringIcNS6_11char_traitsIcEENS6_9allocatorIcEEEERNS1_17ThreadEnvironmentERNS6_13unordered_mapISC_P4TaskNS6_4hashISC_EENS6_8equal_toISC_EENSA_INS6_4pairISD_SJ_EEEEEEbE3$_0EESJ_OT_PKPKSI_mP4PoolENKUlPvE_clES13_.exit"

"_ZZN5drjit8do_asyncIRZN7mitsuba3xml6detailL16instantiate_nodeERNS3_15XMLParseContextERKNSt3__112basic_stringIcNS6_11char_traitsIcEENS6_9allocatorIcEEEERNS1_17ThreadEnvironmentERNS6_13unordered_mapISC_P4TaskNS6_4hashISC_EENS6_8equal_toISC_EENSA_INS6_4pairISD_SJ_EEEEEEbE3$_0EESJ_OT_PKPKSI_mP4PoolENKUlPvE_clES13_.exit": ; preds = %1, %3
  ret void
}